; Function Attrs: mustprogress nofree norecurse nosync nounwind willreturn memory(readwrite, argmem: none, inaccessiblemem: none) uwtable
define void @b2World_EnableWarmStarting(i32 %0, i1 noundef zeroext %1) local_unnamed_addr #12 {
  %3 = and i32 %0, 65535
  %4 = zext nneg i32 %3 to i64
  %5 = getelementptr %struct.b2World, ptr @b2_worlds, i64 %4
  %6 = getelementptr i8, ptr %5, i64 -9
  %7 = load i8, ptr %6, align 1, !tbaa !35, !range !77, !noundef !78
  %8 = trunc nuw i8 %7 to i1
  br i1 %8, label %12, label %9

9:                                                ; preds = %2
  %10 = zext i1 %1 to i8
  %11 = getelementptr i8, ptr %5, i64 -8
  store i8 %10, ptr %11, align 8, !tbaa !135
  br label %12

12:                                               ; preds = %2, %9
  ret void
}